target datalayout = "e-m:e-p270:32:32-p271:32:32-p272:64:64-i64:64-i128:128-f80:128-n8:16:32:64-S128"
target triple = "x86_64-pc-linux-gnu"

%"class.sls::array_plugin" = type { %"class.sls::plugin.base", ptr, %class.array_util, %class.scoped_ptr, %class.scoped_ptr.0, i8, i8, %"struct.sls::array_plugin::stats", %class.svector }
%"class.sls::plugin.base" = type <{ ptr, ptr, ptr, i32 }>
%class.array_util = type { %class.array_recognizers, ptr }
%class.array_recognizers = type { i32 }
%class.scoped_ptr = type { ptr }
%class.scoped_ptr.0 = type { ptr }
%"struct.sls::array_plugin::stats" = type { i32, i32 }
%class.svector = type { %class.vector }
%class.vector = type { ptr }
%"class.sls::plugin" = type <{ ptr, ptr, ptr, i32, [4 x i8] }>
%class.ptr_vector.50 = type { %class.vector.51 }
%class.vector.51 = type { ptr }
%"class.euf::justification" = type { i32, %union.anon, %union.anon.58 }
%union.anon = type { ptr }
%union.anon.58 = type { ptr }
%"class.euf::enode" = type { ptr, i8, i8, i8, i8, i8, i8, i8, i8, i8, i32, i32, i32, i32, i32, i32, %class.ptr_vector.50, ptr, ptr, ptr, ptr, %class.id_var_list, %"class.euf::justification", %"class.euf::justification", i32, i8, %class.approx_set, %class.approx_set, [0 x ptr] }
%class.id_var_list = type { i32, ptr }
%class.approx_set = type { %class.approx_set_tpl }
%class.approx_set_tpl = type { i64 }
%"class.euf::enode_parents" = type { ptr }
%class.app = type { %class.expr, ptr, i32, %struct.app_flags, [0 x ptr] }
%class.expr = type { %class.ast }
%class.ast = type { i32, i32, i32, i32 }
%struct.app_flags = type <{ i16, i8, i8 }>
%class.decl = type { %class.ast, %class.symbol, ptr }
%class.symbol = type { ptr }
%class.decl_info = type <{ i32, i32, %class.vector.90, i8, [7 x i8] }>
%class.vector.90 = type { ptr }

; Function Attrs: mustprogress nounwind uwtable
define linkonce_odr hidden noundef zeroext i1 @_ZNK9decl_info10is_decl_ofEii(ptr noundef nonnull align 8 dereferenceable(17) %0, i32 noundef %1, i32 noundef %2) #5 comdat align 2 {
  %4 = alloca ptr, align 8
  %5 = alloca i32, align 4
  %6 = alloca i32, align 4
  store ptr %0, ptr %4, align 8, !tbaa !341
  store i32 %1, ptr %5, align 4, !tbaa !73
  store i32 %2, ptr %6, align 4, !tbaa !73
  %7 = load ptr, ptr %4, align 8
  %8 = getelementptr inbounds nuw %class.decl_info, ptr %7, i32 0, i32 0
  %9 = load i32, ptr %8, align 8, !tbaa !342
  %10 = load i32, ptr %5, align 4, !tbaa !73
  %11 = icmp eq i32 %9, %10
  br i1 %11, label %12, label %17

12:                                               ; preds = %3
  %13 = load i32, ptr %6, align 4, !tbaa !73
  %14 = getelementptr inbounds nuw %class.decl_info, ptr %7, i32 0, i32 1
  %15 = load i32, ptr %14, align 4, !tbaa !346
  %16 = icmp eq i32 %13, %15
  br label %17

17:                                               ; preds = %12, %3
  %18 = phi i1 [ false, %3 ], [ %16, %12 ]
  ret i1 %18
}

; Function Attrs: mustprogress uwtable
define linkonce_odr hidden noundef zeroext i1 @_ZNK4decl10is_decl_ofEii(ptr noundef nonnull align 8 dereferenceable(32) %0, i32 noundef %1, i32 noundef %2) #4 comdat align 2 {
  %4 = alloca ptr, align 8
  %5 = alloca i32, align 4
  %6 = alloca i32, align 4
  store ptr %0, ptr %4, align 8, !tbaa !335
  store i32 %1, ptr %5, align 4, !tbaa !73
  store i32 %2, ptr %6, align 4, !tbaa !73
  %7 = load ptr, ptr %4, align 8
  %8 = getelementptr inbounds nuw %class.decl, ptr %7, i32 0, i32 2
  %9 = load ptr, ptr %8, align 8, !tbaa !337
  %10 = icmp ne ptr %9, null
  br i1 %10, label %11, label %17

11:                                               ; preds = %3
  %12 = getelementptr inbounds nuw %class.decl, ptr %7, i32 0, i32 2
  %13 = load ptr, ptr %12, align 8, !tbaa !337
  %14 = load i32, ptr %5, align 4, !tbaa !73
  %15 = load i32, ptr %6, align 4, !tbaa !73
  %16 = call noundef zeroext i1 @_ZNK9decl_info10is_decl_ofEii(ptr noundef nonnull align 8 dereferenceable(17) %13, i32 noundef %14, i32 noundef %15)
  br label %17

17:                                               ; preds = %11, %3
  %18 = phi i1 [ false, %3 ], [ %16, %11 ]
  ret i1 %18
}

; Function Attrs: mustprogress uwtable
define linkonce_odr hidden noundef zeroext i1 @_ZNK3app9is_app_ofEii(ptr noundef nonnull align 8 dereferenceable(32) %0, i32 noundef %1, i32 noundef %2) #4 comdat align 2 {
  %4 = alloca ptr, align 8
  %5 = alloca i32, align 4
  %6 = alloca i32, align 4
  store ptr %0, ptr %4, align 8, !tbaa !64
  store i32 %1, ptr %5, align 4, !tbaa !73
  store i32 %2, ptr %6, align 4, !tbaa !73
  %7 = load ptr, ptr %4, align 8
  %8 = getelementptr inbounds nuw %class.app, ptr %7, i32 0, i32 1
  %9 = load ptr, ptr %8, align 8, !tbaa !334
  %10 = load i32, ptr %5, align 4, !tbaa !73
  %11 = load i32, ptr %6, align 4, !tbaa !73
  %12 = call noundef zeroext i1 @_ZNK4decl10is_decl_ofEii(ptr noundef nonnull align 8 dereferenceable(32) %9, i32 noundef %10, i32 noundef %11)
  ret i1 %12
}

; Function Attrs: inlinehint mustprogress nounwind uwtable
define linkonce_odr hidden noundef ptr @_Z6to_appPK3ast(ptr noundef %0) #6 comdat {
  %2 = alloca ptr, align 8
  store ptr %0, ptr %2, align 8, !tbaa !268
  %3 = load ptr, ptr %2, align 8, !tbaa !268
  ret ptr %3
}

; Function Attrs: mustprogress nounwind uwtable
define linkonce_odr hidden noundef i32 @_ZNK3ast8get_kindEv(ptr noundef nonnull align 4 dereferenceable(16) %0) #5 comdat align 2 {
  %2 = alloca ptr, align 8
  store ptr %0, ptr %2, align 8, !tbaa !268
  %3 = load ptr, ptr %2, align 8
  %4 = getelementptr inbounds nuw %class.ast, ptr %3, i32 0, i32 1
  %5 = load i32, ptr %4, align 4
  %6 = and i32 %5, 65535
  ret i32 %6
}

; Function Attrs: mustprogress nounwind uwtable
define linkonce_odr hidden noundef i32 @_ZNK6vectorIPN3euf5enodeELb0EjE4sizeEv(ptr noundef nonnull align 8 dereferenceable(8) %0) #5 comdat align 2 {
  %2 = alloca i32, align 4
  %3 = alloca ptr, align 8
  store ptr %0, ptr %3, align 8, !tbaa !188
  %4 = load ptr, ptr %3, align 8
  %5 = getelementptr inbounds nuw %class.vector.51, ptr %4, i32 0, i32 0
  %6 = load ptr, ptr %5, align 8, !tbaa !190
  %7 = icmp eq ptr %6, null
  br i1 %7, label %8, label %9

8:                                                ; preds = %1
  store i32 0, ptr %2, align 4
  br label %14

9:                                                ; preds = %1
  %10 = getelementptr inbounds nuw %class.vector.51, ptr %4, i32 0, i32 0
  %11 = load ptr, ptr %10, align 8, !tbaa !190
  %12 = getelementptr inbounds i32, ptr %11, i64 -1
  %13 = load i32, ptr %12, align 4, !tbaa !73
  store i32 %13, ptr %2, align 4
  br label %14

14:                                               ; preds = %9, %8
  %15 = load i32, ptr %2, align 4
  ret i32 %15
}

; Function Attrs: inlinehint mustprogress uwtable
define linkonce_odr hidden noundef zeroext i1 @_Z9is_app_ofPK4exprii(ptr noundef %0, i32 noundef %1, i32 noundef %2) #8 comdat {
  %4 = alloca ptr, align 8
  %5 = alloca i32, align 4
  %6 = alloca i32, align 4
  store ptr %0, ptr %4, align 8, !tbaa !62
  store i32 %1, ptr %5, align 4, !tbaa !73
  store i32 %2, ptr %6, align 4, !tbaa !73
  %7 = load ptr, ptr %4, align 8, !tbaa !62
  %8 = call noundef i32 @_ZNK3ast8get_kindEv(ptr noundef nonnull align 4 dereferenceable(16) %7)
  %9 = icmp eq i32 %8, 0
  br i1 %9, label %10, label %16

10:                                               ; preds = %3
  %11 = load ptr, ptr %4, align 8, !tbaa !62
  %12 = call noundef ptr @_Z6to_appPK3ast(ptr noundef %11)
  %13 = load i32, ptr %5, align 4, !tbaa !73
  %14 = load i32, ptr %6, align 4, !tbaa !73
  %15 = call noundef zeroext i1 @_ZNK3app9is_app_ofEii(ptr noundef nonnull align 8 dereferenceable(32) %12, i32 noundef %13, i32 noundef %14)
  br label %16

16:                                               ; preds = %10, %3
  %17 = phi i1 [ false, %3 ], [ %15, %10 ]
  ret i1 %17
}

; Function Attrs: mustprogress nounwind uwtable
define linkonce_odr hidden noundef ptr @_ZNK6vectorIPN3euf5enodeELb0EjE3endEv(ptr noundef nonnull align 8 dereferenceable(8) %0) #5 comdat align 2 {
  %2 = alloca ptr, align 8
  store ptr %0, ptr %2, align 8, !tbaa !188
  %3 = load ptr, ptr %2, align 8
  %4 = getelementptr inbounds nuw %class.vector.51, ptr %3, i32 0, i32 0
  %5 = load ptr, ptr %4, align 8, !tbaa !190
  %6 = call noundef i32 @_ZNK6vectorIPN3euf5enodeELb0EjE4sizeEv(ptr noundef nonnull align 8 dereferenceable(8) %3)
  %7 = zext i32 %6 to i64
  %8 = getelementptr inbounds nuw ptr, ptr %5, i64 %7
  ret ptr %8
}

; Function Attrs: mustprogress nounwind uwtable
define linkonce_odr hidden noundef ptr @_ZNK6vectorIPN3euf5enodeELb0EjE5beginEv(ptr noundef nonnull align 8 dereferenceable(8) %0) #5 comdat align 2 {
  %2 = alloca ptr, align 8
  store ptr %0, ptr %2, align 8, !tbaa !188
  %3 = load ptr, ptr %2, align 8
  %4 = getelementptr inbounds nuw %class.vector.51, ptr %3, i32 0, i32 0
  %5 = load ptr, ptr %4, align 8, !tbaa !190
  ret ptr %5
}

; Function Attrs: mustprogress uwtable
define linkonce_odr hidden noundef zeroext i1 @_ZNK11ast_manager5is_eqEPK4expr(ptr noundef nonnull align 8 dereferenceable(976) %0, ptr noundef %1) #4 comdat align 2 {
  %3 = alloca ptr, align 8
  %4 = alloca ptr, align 8
  store ptr %0, ptr %3, align 8, !tbaa !183
  store ptr %1, ptr %4, align 8, !tbaa !62
  %5 = load ptr, ptr %4, align 8, !tbaa !62
  %6 = call noundef zeroext i1 @_Z9is_app_ofPK4exprii(ptr noundef %5, i32 noundef 0, i32 noundef 2)
  ret i1 %6
}

; Function Attrs: mustprogress nounwind uwtable
define linkonce_odr hidden noundef ptr @_ZNK3euf5enode8get_rootEv(ptr noundef nonnull align 8 dereferenceable(176) %0) #5 comdat align 2 {
  %2 = alloca ptr, align 8
  store ptr %0, ptr %2, align 8, !tbaa !66
  %3 = load ptr, ptr %2, align 8
  %4 = getelementptr inbounds nuw %"class.euf::enode", ptr %3, i32 0, i32 18
  %5 = load ptr, ptr %4, align 8, !tbaa !228
  ret ptr %5
}

; Function Attrs: mustprogress nounwind uwtable
define linkonce_odr hidden noundef ptr @_ZNK3euf5enode7get_argEj(ptr noundef nonnull align 8 dereferenceable(176) %0, i32 noundef %1) #5 comdat align 2 {
  %3 = alloca ptr, align 8
  %4 = alloca i32, align 4
  store ptr %0, ptr %3, align 8, !tbaa !66
  store i32 %1, ptr %4, align 4, !tbaa !73
  %5 = load ptr, ptr %3, align 8
  %6 = getelementptr inbounds nuw %"class.euf::enode", ptr %5, i32 0, i32 28
  %7 = load i32, ptr %4, align 4, !tbaa !73
  %8 = zext i32 %7 to i64
  %9 = getelementptr inbounds nuw [0 x ptr], ptr %6, i64 0, i64 %8
  %10 = load ptr, ptr %9, align 8, !tbaa !66
  ret ptr %10
}

; Function Attrs: mustprogress nounwind uwtable
define linkonce_odr hidden noundef i32 @_ZNK3euf5enode8num_argsEv(ptr noundef nonnull align 8 dereferenceable(176) %0) #5 comdat align 2 {
  %2 = alloca ptr, align 8
  store ptr %0, ptr %2, align 8, !tbaa !66
  %3 = load ptr, ptr %2, align 8
  %4 = getelementptr inbounds nuw %"class.euf::enode", ptr %3, i32 0, i32 24
  %5 = load i32, ptr %4, align 8, !tbaa !237
  ret i32 %5
}

; Function Attrs: mustprogress uwtable
define linkonce_odr hidden noundef zeroext i1 @_ZNK17array_recognizers8is_storeEP4expr(ptr noundef nonnull align 4 dereferenceable(4) %0, ptr noundef %1) #4 comdat align 2 {
  %3 = alloca ptr, align 8
  %4 = alloca ptr, align 8
  store ptr %0, ptr %3, align 8, !tbaa !47
  store ptr %1, ptr %4, align 8, !tbaa !62
  %5 = load ptr, ptr %3, align 8
  %6 = load ptr, ptr %4, align 8, !tbaa !62
  %7 = getelementptr inbounds nuw %class.array_recognizers, ptr %5, i32 0, i32 0
  %8 = load i32, ptr %7, align 4, !tbaa !49
  %9 = call noundef zeroext i1 @_Z9is_app_ofPK4exprii(ptr noundef %6, i32 noundef %8, i32 noundef 0)
  ret i1 %9
}

; Function Attrs: mustprogress uwtable
define linkonce_odr hidden noundef zeroext i1 @_ZNK17array_recognizers9is_selectEP4expr(ptr noundef nonnull align 4 dereferenceable(4) %0, ptr noundef %1) #4 comdat align 2 {
  %3 = alloca ptr, align 8
  %4 = alloca ptr, align 8
  store ptr %0, ptr %3, align 8, !tbaa !47
  store ptr %1, ptr %4, align 8, !tbaa !62
  %5 = load ptr, ptr %3, align 8
  %6 = load ptr, ptr %4, align 8, !tbaa !62
  %7 = getelementptr inbounds nuw %class.array_recognizers, ptr %5, i32 0, i32 0
  %8 = load i32, ptr %7, align 4, !tbaa !49
  %9 = call noundef zeroext i1 @_Z9is_app_ofPK4exprii(ptr noundef %6, i32 noundef %8, i32 noundef 1)
  ret i1 %9
}

; Function Attrs: mustprogress nounwind uwtable
define linkonce_odr hidden noundef ptr @_ZNK3euf5enode8get_exprEv(ptr noundef nonnull align 8 dereferenceable(176) %0) #5 comdat align 2 {
  %2 = alloca ptr, align 8
  store ptr %0, ptr %2, align 8, !tbaa !66
  %3 = load ptr, ptr %2, align 8
  %4 = getelementptr inbounds nuw %"class.euf::enode", ptr %3, i32 0, i32 0
  %5 = load ptr, ptr %4, align 8, !tbaa !167
  ret ptr %5
}

; Function Attrs: mustprogress uwtable
define linkonce_odr hidden noundef ptr @_ZNK3euf13enode_parents3endEv(ptr noundef nonnull align 8 dereferenceable(8) %0) #4 comdat align 2 {
  %2 = alloca ptr, align 8
  store ptr %0, ptr %2, align 8, !tbaa !191
  %3 = load ptr, ptr %2, align 8
  %4 = getelementptr inbounds nuw %"class.euf::enode_parents", ptr %3, i32 0, i32 0
  %5 = load ptr, ptr %4, align 8, !tbaa !235
  %6 = getelementptr inbounds nuw %"class.euf::enode", ptr %5, i32 0, i32 16
  %7 = call noundef ptr @_ZNK6vectorIPN3euf5enodeELb0EjE3endEv(ptr noundef nonnull align 8 dereferenceable(8) %6)
  ret ptr %7
}

; Function Attrs: mustprogress uwtable
define linkonce_odr hidden noundef ptr @_ZNK3euf13enode_parents5beginEv(ptr noundef nonnull align 8 dereferenceable(8) %0) #4 comdat align 2 {
  %2 = alloca ptr, align 8
  store ptr %0, ptr %2, align 8, !tbaa !191
  %3 = load ptr, ptr %2, align 8
  %4 = getelementptr inbounds nuw %"class.euf::enode_parents", ptr %3, i32 0, i32 0
  %5 = load ptr, ptr %4, align 8, !tbaa !235
  %6 = getelementptr inbounds nuw %"class.euf::enode", ptr %5, i32 0, i32 16
  %7 = call noundef ptr @_ZNK6vectorIPN3euf5enodeELb0EjE5beginEv(ptr noundef nonnull align 8 dereferenceable(8) %6)
  ret ptr %7
}

; Function Attrs: mustprogress nounwind uwtable
define linkonce_odr hidden void @_ZN3euf13enode_parentsC2EPKNS_5enodeE(ptr noundef nonnull align 8 dereferenceable(8) %0, ptr noundef %1) unnamed_addr #5 comdat align 2 {
  %3 = alloca ptr, align 8
  %4 = alloca ptr, align 8
  store ptr %0, ptr %3, align 8, !tbaa !191
  store ptr %1, ptr %4, align 8, !tbaa !66
  %5 = load ptr, ptr %3, align 8
  %6 = getelementptr inbounds nuw %"class.euf::enode_parents", ptr %5, i32 0, i32 0
  %7 = load ptr, ptr %4, align 8, !tbaa !66
  store ptr %7, ptr %6, align 8, !tbaa !66
  ret void
}

; Function Attrs: mustprogress uwtable
define hidden noundef zeroext i1 @_ZN3sls12array_plugin13is_shared_argEPN3euf5enodeE(ptr noundef nonnull align 8 dereferenceable(96) %0, ptr noundef %1) #4 align 2 {
  %3 = alloca i1, align 1
  %4 = alloca ptr, align 8
  %5 = alloca ptr, align 8
  %6 = alloca ptr, align 8
  %7 = alloca %"class.euf::enode_parents", align 8
  %8 = alloca ptr, align 8
  %9 = alloca ptr, align 8
  %10 = alloca i32, align 4
  %11 = alloca ptr, align 8
  %12 = alloca ptr, align 8
  %13 = alloca i32, align 4
  store ptr %0, ptr %4, align 8, !tbaa !3
  store ptr %1, ptr %5, align 8, !tbaa !66
  %14 = load ptr, ptr %4, align 8
  call void @llvm.lifetime.start.p0(i64 8, ptr %6) #3
  call void @llvm.lifetime.start.p0(i64 8, ptr %7) #3
  %15 = load ptr, ptr %5, align 8, !tbaa !66
  call void @_ZN3euf13enode_parentsC2EPKNS_5enodeE(ptr noundef nonnull align 8 dereferenceable(8) %7, ptr noundef %15)
  store ptr %7, ptr %6, align 8, !tbaa !191
  call void @llvm.lifetime.start.p0(i64 8, ptr %8) #3
  %16 = load ptr, ptr %6, align 8, !tbaa !191
  %17 = call noundef ptr @_ZNK3euf13enode_parents5beginEv(ptr noundef nonnull align 8 dereferenceable(8) %16)
  store ptr %17, ptr %8, align 8, !tbaa !193
  call void @llvm.lifetime.start.p0(i64 8, ptr %9) #3
  %18 = load ptr, ptr %6, align 8, !tbaa !191
  %19 = call noundef ptr @_ZNK3euf13enode_parents3endEv(ptr noundef nonnull align 8 dereferenceable(8) %18)
  store ptr %19, ptr %9, align 8, !tbaa !193
  br label %20

20:                                               ; preds = %68, %2
  %21 = load ptr, ptr %8, align 8, !tbaa !193
  %22 = load ptr, ptr %9, align 8, !tbaa !193
  %23 = icmp ne ptr %21, %22
  br i1 %23, label %25, label %24

24:                                               ; preds = %20
  store i32 2, ptr %10, align 4
  br label %71

25:                                               ; preds = %20
  call void @llvm.lifetime.start.p0(i64 8, ptr %11) #3
  %26 = load ptr, ptr %8, align 8, !tbaa !193
  %27 = load ptr, ptr %26, align 8, !tbaa !66
  store ptr %27, ptr %11, align 8, !tbaa !66
  call void @llvm.lifetime.start.p0(i64 8, ptr %12) #3
  %28 = load ptr, ptr %11, align 8, !tbaa !66
  %29 = call noundef ptr @_ZNK3euf5enode8get_exprEv(ptr noundef nonnull align 8 dereferenceable(176) %28)
  store ptr %29, ptr %12, align 8, !tbaa !62
  %30 = getelementptr inbounds nuw %"class.sls::array_plugin", ptr %14, i32 0, i32 2
  %31 = load ptr, ptr %12, align 8, !tbaa !62
  %32 = call noundef zeroext i1 @_ZNK17array_recognizers9is_selectEP4expr(ptr noundef nonnull align 4 dereferenceable(4) %30, ptr noundef %31)
  br i1 %32, label %37, label %33

33:                                               ; preds = %25
  %34 = getelementptr inbounds nuw %"class.sls::array_plugin", ptr %14, i32 0, i32 2
  %35 = load ptr, ptr %12, align 8, !tbaa !62
  %36 = call noundef zeroext i1 @_ZNK17array_recognizers8is_storeEP4expr(ptr noundef nonnull align 4 dereferenceable(4) %34, ptr noundef %35)
  br i1 %36, label %37, label %59

37:                                               ; preds = %33, %25
  call void @llvm.lifetime.start.p0(i64 4, ptr %13) #3
  store i32 1, ptr %13, align 4, !tbaa !73
  br label %38

38:                                               ; preds = %53, %37
  %39 = load i32, ptr %13, align 4, !tbaa !73
  %40 = load ptr, ptr %11, align 8, !tbaa !66
  %41 = call noundef i32 @_ZNK3euf5enode8num_argsEv(ptr noundef nonnull align 8 dereferenceable(176) %40)
  %42 = icmp ult i32 %39, %41
  br i1 %42, label %44, label %43

43:                                               ; preds = %38
  store i32 4, ptr %10, align 4
  br label %56

44:                                               ; preds = %38
  %45 = load ptr, ptr %5, align 8, !tbaa !66
  %46 = load ptr, ptr %11, align 8, !tbaa !66
  %47 = load i32, ptr %13, align 4, !tbaa !73
  %48 = call noundef ptr @_ZNK3euf5enode7get_argEj(ptr noundef nonnull align 8 dereferenceable(176) %46, i32 noundef %47)
  %49 = call noundef ptr @_ZNK3euf5enode8get_rootEv(ptr noundef nonnull align 8 dereferenceable(176) %48)
  %50 = icmp eq ptr %45, %49
  br i1 %50, label %51, label %52

51:                                               ; preds = %44
  store i1 true, ptr %3, align 1
  store i32 1, ptr %10, align 4
  br label %56

52:                                               ; preds = %44
  br label %53

53:                                               ; preds = %52
  %54 = load i32, ptr %13, align 4, !tbaa !73
  %55 = add i32 %54, 1
  store i32 %55, ptr %13, align 4, !tbaa !73
  br label %38, !llvm.loop !230

56:                                               ; preds = %51, %43
  call void @llvm.lifetime.end.p0(i64 4, ptr %13) #3
  %57 = load i32, ptr %10, align 4
  switch i32 %57, label %66 [
    i32 4, label %58
  ]

58:                                               ; preds = %56
  store i32 3, ptr %10, align 4
  br label %66

59:                                               ; preds = %33
  %60 = getelementptr inbounds nuw %"class.sls::plugin", ptr %14, i32 0, i32 2
  %61 = load ptr, ptr %60, align 8, !tbaa !14
  %62 = load ptr, ptr %12, align 8, !tbaa !62
  %63 = call noundef zeroext i1 @_ZNK11ast_manager5is_eqEPK4expr(ptr noundef nonnull align 8 dereferenceable(976) %61, ptr noundef %62)
  br i1 %63, label %64, label %65

64:                                               ; preds = %59
  store i32 3, ptr %10, align 4
  br label %66

65:                                               ; preds = %59
  store i1 true, ptr %3, align 1
  store i32 1, ptr %10, align 4
  br label %66

66:                                               ; preds = %65, %64, %58, %56
  call void @llvm.lifetime.end.p0(i64 8, ptr %12) #3
  call void @llvm.lifetime.end.p0(i64 8, ptr %11) #3
  %67 = load i32, ptr %10, align 4
  switch i32 %67, label %71 [
    i32 3, label %68
  ]

68:                                               ; preds = %66
  %69 = load ptr, ptr %8, align 8, !tbaa !193
  %70 = getelementptr inbounds nuw ptr, ptr %69, i32 1
  store ptr %70, ptr %8, align 8, !tbaa !193
  br label %20

71:                                               ; preds = %66, %24
  call void @llvm.lifetime.end.p0(i64 8, ptr %9) #3
  call void @llvm.lifetime.end.p0(i64 8, ptr %8) #3
  call void @llvm.lifetime.end.p0(i64 8, ptr %7) #3
  call void @llvm.lifetime.end.p0(i64 8, ptr %6) #3
  %72 = load i32, ptr %10, align 4
  switch i32 %72, label %76 [
    i32 2, label %73
    i32 1, label %74
  ]

73:                                               ; preds = %71
  store i1 false, ptr %3, align 1
  br label %74

74:                                               ; preds = %73, %71
  %75 = load i1, ptr %3, align 1
  ret i1 %75

76:                                               ; preds = %71
  unreachable
}