; Function Attrs: mustprogress nofree norecurse nosync nounwind willreturn memory(read, inaccessiblemem: none) uwtable
define hidden noundef zeroext i1 @_ZN3sls12array_plugin13is_shared_argEPN3euf5enodeE(ptr noundef nonnull readonly align 8 captures(none) dereferenceable(96) %0, ptr noundef readonly captures(address) %1) local_unnamed_addr #7 align 2 {
  %3 = getelementptr inbounds nuw i8, ptr %1, i64 48
  %4 = load ptr, ptr %3, align 8, !tbaa !113
  %5 = icmp eq ptr %4, null
  br i1 %5, label %.thread35, label %_ZNK3euf13enode_parents3endEv.exit

_ZNK3euf13enode_parents3endEv.exit:               ; preds = %2
  %6 = getelementptr inbounds i8, ptr %4, i64 -4
  %7 = load i32, ptr %6, align 4, !tbaa !116
  %8 = zext i32 %7 to i64
  %9 = getelementptr inbounds nuw ptr, ptr %4, i64 %8
  %.not43.not = icmp eq i32 %7, 0
  br i1 %.not43.not, label %.thread35, label %.lr.ph46

.lr.ph46:                                         ; preds = %_ZNK3euf13enode_parents3endEv.exit
  %10 = getelementptr inbounds nuw i8, ptr %0, i64 40
  %11 = load i32, ptr %10, align 8, !tbaa !32
  br label %12

12:                                               ; preds = %.lr.ph46, %.loopexit
  %.02344 = phi ptr [ %4, %.lr.ph46 ], [ %53, %.loopexit ]
  %13 = load ptr, ptr %.02344, align 8, !tbaa !129
  %14 = load ptr, ptr %13, align 8, !tbaa !180
  %15 = getelementptr inbounds nuw i8, ptr %14, i64 4
  %16 = load i32, ptr %15, align 4
  %17 = and i32 %16, 65535
  %18 = icmp eq i32 %17, 0
  br i1 %18, label %19, label %.thread35

19:                                               ; preds = %12
  %20 = getelementptr inbounds nuw i8, ptr %14, i64 16
  %21 = load ptr, ptr %20, align 8, !tbaa !175
  %22 = getelementptr inbounds nuw i8, ptr %21, i64 24
  %23 = load ptr, ptr %22, align 8, !tbaa !136
  %.not.i.i.i.i = icmp eq ptr %23, null
  br i1 %.not.i.i.i.i, label %.thread35, label %_ZNK17array_recognizers9is_selectEP4expr.exit

_ZNK17array_recognizers9is_selectEP4expr.exit:    ; preds = %19
  %24 = load i32, ptr %23, align 8, !tbaa !140
  %25 = icmp eq i32 %24, %11
  %26 = getelementptr inbounds nuw i8, ptr %23, i64 4
  %27 = load i32, ptr %26, align 4
  %28 = icmp eq i32 %27, 1
  %29 = select i1 %25, i1 %28, i1 false
  br i1 %29, label %36, label %_ZNK17array_recognizers8is_storeEP4expr.exit

_ZNK17array_recognizers8is_storeEP4expr.exit:     ; preds = %_ZNK17array_recognizers9is_selectEP4expr.exit
  %30 = load i32, ptr %23, align 8, !tbaa !140
  %31 = icmp eq i32 %30, %11
  %32 = getelementptr inbounds nuw i8, ptr %23, i64 4
  %33 = load i32, ptr %32, align 4
  %34 = icmp eq i32 %33, 0
  %35 = select i1 %31, i1 %34, i1 false
  br i1 %35, label %36, label %_ZNK11ast_manager5is_eqEPK4expr.exit

36:                                               ; preds = %_ZNK17array_recognizers8is_storeEP4expr.exit, %_ZNK17array_recognizers9is_selectEP4expr.exit
  %37 = getelementptr inbounds nuw i8, ptr %13, i64 152
  %38 = load i32, ptr %37, align 8, !tbaa !188
  %.not2741 = icmp ugt i32 %38, 1
  br i1 %.not2741, label %.lr.ph, label %.loopexit

.lr.ph:                                           ; preds = %36
  %39 = getelementptr inbounds nuw i8, ptr %13, i64 176
  %wide.trip.count = zext i32 %38 to i64
  br label %41

40:                                               ; preds = %41
  %indvars.iv.next = add nuw nsw i64 %indvars.iv, 1
  %exitcond.not = icmp eq i64 %indvars.iv.next, %wide.trip.count
  br i1 %exitcond.not, label %.loopexit, label %41, !llvm.loop !234

41:                                               ; preds = %.lr.ph, %40
  %indvars.iv = phi i64 [ 1, %.lr.ph ], [ %indvars.iv.next, %40 ]
  %42 = getelementptr inbounds nuw [0 x ptr], ptr %39, i64 0, i64 %indvars.iv
  %43 = load ptr, ptr %42, align 8, !tbaa !129
  %44 = getelementptr inbounds nuw i8, ptr %43, i64 64
  %45 = load ptr, ptr %44, align 8, !tbaa !189
  %46 = icmp eq ptr %1, %45
  br i1 %46, label %.thread35, label %40

_ZNK11ast_manager5is_eqEPK4expr.exit:             ; preds = %_ZNK17array_recognizers8is_storeEP4expr.exit
  %47 = load i32, ptr %23, align 8, !tbaa !140
  %48 = icmp eq i32 %47, 0
  %49 = getelementptr inbounds nuw i8, ptr %23, i64 4
  %50 = load i32, ptr %49, align 4
  %51 = icmp eq i32 %50, 2
  %52 = select i1 %48, i1 %51, i1 false
  %cond.fr = freeze i1 %52
  br i1 %cond.fr, label %.loopexit, label %.thread35

.loopexit:                                        ; preds = %40, %36, %_ZNK11ast_manager5is_eqEPK4expr.exit
  %53 = getelementptr inbounds nuw i8, ptr %.02344, i64 8
  %.not.not = icmp eq ptr %53, %9
  br i1 %.not.not, label %.thread35, label %12

.thread35:                                        ; preds = %19, %.loopexit, %_ZNK11ast_manager5is_eqEPK4expr.exit, %12, %41, %2, %_ZNK3euf13enode_parents3endEv.exit
  %.not40 = phi i1 [ false, %_ZNK3euf13enode_parents3endEv.exit ], [ false, %2 ], [ true, %41 ], [ true, %19 ], [ false, %.loopexit ], [ true, %_ZNK11ast_manager5is_eqEPK4expr.exit ], [ true, %12 ]
  ret i1 %.not40
}